target datalayout = "e-m:e-p270:32:32-p271:32:32-p272:64:64-i64:64-i128:128-f80:128-n8:16:32:64-S128"
target triple = "x86_64-pc-linux-gnu"

%struct.ident_t = type { i32, i32, i32, i32, ptr }
%"class.open3d::t::geometry::kernel::TArrayIndexer" = type { ptr, i64, i64, [4 x i64] }
%class.anon.409 = type { i64, %"class.open3d::t::geometry::kernel::TArrayIndexer", float, float, float, float, %"class.open3d::t::geometry::kernel::TArrayIndexer" }

@1 = private unnamed_addr constant %struct.ident_t { i32 0, i32 514, i32 0, i32 22, ptr @0 }, align 8

; Function Attrs: inlinehint mustprogress nounwind ssp uwtable
define linkonce_odr hidden void @_ZNK6open3d1t8geometry6kernel13TArrayIndexerIlE15CoordToWorkloadEllPl(ptr noundef nonnull align 8 dereferenceable(56) %0, i64 noundef %1, i64 noundef %2, ptr noundef %3) #2 comdat align 2 {
  %5 = alloca ptr, align 8
  %6 = alloca i64, align 8
  %7 = alloca i64, align 8
  %8 = alloca ptr, align 8
  store ptr %0, ptr %5, align 8, !tbaa !1774
  store i64 %1, ptr %6, align 8, !tbaa !49
  store i64 %2, ptr %7, align 8, !tbaa !49
  store ptr %3, ptr %8, align 8, !tbaa !29
  %9 = load ptr, ptr %5, align 8
  %10 = load i64, ptr %7, align 8, !tbaa !49
  %11 = getelementptr inbounds nuw %"class.open3d::t::geometry::kernel::TArrayIndexer", ptr %9, i32 0, i32 3
  %12 = getelementptr inbounds [4 x i64], ptr %11, i64 0, i64 1
  %13 = load i64, ptr %12, align 8, !tbaa !49
  %14 = mul nsw i64 %10, %13
  %15 = load i64, ptr %6, align 8, !tbaa !49
  %16 = add nsw i64 %14, %15
  %17 = load ptr, ptr %8, align 8, !tbaa !29
  store i64 %16, ptr %17, align 8, !tbaa !49
  ret void
}

; Function Attrs: inlinehint mustprogress nounwind ssp uwtable
define linkonce_odr hidden noundef ptr @_ZNK6open3d1t8geometry6kernel13TArrayIndexerIlE10GetDataPtrIhEEPT_ll(ptr noundef nonnull align 8 dereferenceable(56) %0, i64 noundef %1, i64 noundef %2) #2 comdat align 2 {
  %4 = alloca ptr, align 8
  %5 = alloca i64, align 8
  %6 = alloca i64, align 8
  %7 = alloca i64, align 8
  store ptr %0, ptr %4, align 8, !tbaa !1774
  store i64 %1, ptr %5, align 8, !tbaa !49
  store i64 %2, ptr %6, align 8, !tbaa !49
  %8 = load ptr, ptr %4, align 8
  call void @llvm.lifetime.start.p0(i64 8, ptr %7) #19
  %9 = load i64, ptr %5, align 8, !tbaa !49
  %10 = load i64, ptr %6, align 8, !tbaa !49
  call void @_ZNK6open3d1t8geometry6kernel13TArrayIndexerIlE15CoordToWorkloadEllPl(ptr noundef nonnull align 8 dereferenceable(56) %8, i64 noundef %9, i64 noundef %10, ptr noundef %7)
  %11 = getelementptr inbounds nuw %"class.open3d::t::geometry::kernel::TArrayIndexer", ptr %8, i32 0, i32 0
  %12 = load ptr, ptr %11, align 8, !tbaa !1782
  %13 = load i64, ptr %7, align 8, !tbaa !49
  %14 = getelementptr inbounds nuw %"class.open3d::t::geometry::kernel::TArrayIndexer", ptr %8, i32 0, i32 1
  %15 = load i64, ptr %14, align 8, !tbaa !1779
  %16 = mul nsw i64 %13, %15
  %17 = getelementptr inbounds i8, ptr %12, i64 %16
  call void @llvm.lifetime.end.p0(i64 8, ptr %7) #19
  ret ptr %17
}

; Function Attrs: inlinehint mustprogress ssp uwtable
define linkonce_odr hidden noundef ptr @_ZNK6open3d1t8geometry6kernel13TArrayIndexerIlE10GetDataPtrIfEEPT_ll(ptr noundef nonnull align 8 dereferenceable(56) %0, i64 noundef %1, i64 noundef %2) #7 comdat align 2 {
  %4 = alloca ptr, align 8
  %5 = alloca i64, align 8
  %6 = alloca i64, align 8
  %7 = alloca i64, align 8
  store ptr %0, ptr %4, align 8, !tbaa !1774
  store i64 %1, ptr %5, align 8, !tbaa !49
  store i64 %2, ptr %6, align 8, !tbaa !49
  %8 = load ptr, ptr %4, align 8
  call void @llvm.lifetime.start.p0(i64 8, ptr %7) #19
  %9 = load i64, ptr %5, align 8, !tbaa !49
  %10 = load i64, ptr %6, align 8, !tbaa !49
  call void @_ZNK6open3d1t8geometry6kernel13TArrayIndexerIlE15CoordToWorkloadEllPl(ptr noundef nonnull align 8 dereferenceable(56) %8, i64 noundef %9, i64 noundef %10, ptr noundef %7)
  %11 = getelementptr inbounds nuw %"class.open3d::t::geometry::kernel::TArrayIndexer", ptr %8, i32 0, i32 0
  %12 = load ptr, ptr %11, align 8, !tbaa !1782
  %13 = load i64, ptr %7, align 8, !tbaa !49
  %14 = getelementptr inbounds nuw %"class.open3d::t::geometry::kernel::TArrayIndexer", ptr %8, i32 0, i32 1
  %15 = load i64, ptr %14, align 8, !tbaa !1779
  %16 = mul nsw i64 %13, %15
  %17 = getelementptr inbounds i8, ptr %12, i64 %16
  call void @llvm.lifetime.end.p0(i64 8, ptr %7) #19
  ret ptr %17
}

; Function Attrs: noinline noreturn nounwind ssp uwtable
define linkonce_odr hidden void @__clang_call_terminate(ptr noundef %0) #9 comdat {
  %2 = call ptr @__cxa_begin_catch(ptr %0) #19
  call void @_ZSt9terminatev() #29
  unreachable
}

; Function Attrs: inlinehint mustprogress ssp uwtable
define internal void @"_ZZZZN6open3d1t8geometry6kernel5image16ColorizeDepthCPUERKNS_4core6TensorERS5_fffENK3$_0clEvENKUlvE_clEvENKUllE_clEl"(ptr noundef nonnull align 8 dereferenceable(136) %0, i64 noundef %1) #7 align 2 {
  %3 = alloca ptr, align 8
  %4 = alloca i64, align 8
  %5 = alloca i64, align 8
  %6 = alloca i64, align 8
  %7 = alloca float, align 4
  %8 = alloca float, align 4
  %9 = alloca i32, align 4
  %10 = alloca ptr, align 8
  store ptr %0, ptr %3, align 8, !tbaa !51
  store i64 %1, ptr %4, align 8, !tbaa !49
  %11 = load ptr, ptr %3, align 8
  call void @llvm.lifetime.start.p0(i64 8, ptr %5) #19
  %12 = load i64, ptr %4, align 8, !tbaa !49
  %13 = getelementptr inbounds nuw %class.anon.409, ptr %11, i32 0, i32 0
  %14 = load i64, ptr %13, align 8, !tbaa !2037
  %15 = sdiv i64 %12, %14
  store i64 %15, ptr %5, align 8, !tbaa !49
  call void @llvm.lifetime.start.p0(i64 8, ptr %6) #19
  %16 = load i64, ptr %4, align 8, !tbaa !49
  %17 = getelementptr inbounds nuw %class.anon.409, ptr %11, i32 0, i32 0
  %18 = load i64, ptr %17, align 8, !tbaa !2037
  %19 = srem i64 %16, %18
  store i64 %19, ptr %6, align 8, !tbaa !49
  call void @llvm.lifetime.start.p0(i64 4, ptr %7) #19
  %20 = getelementptr inbounds nuw %class.anon.409, ptr %11, i32 0, i32 1
  %21 = load i64, ptr %6, align 8, !tbaa !49
  %22 = load i64, ptr %5, align 8, !tbaa !49
  %23 = call noundef ptr @_ZNK6open3d1t8geometry6kernel13TArrayIndexerIlE10GetDataPtrIfEEPT_ll(ptr noundef nonnull align 8 dereferenceable(56) %20, i64 noundef %21, i64 noundef %22)
  %24 = load float, ptr %23, align 4, !tbaa !15
  store float %24, ptr %7, align 4, !tbaa !15
  call void @llvm.lifetime.start.p0(i64 4, ptr %8) #19
  %25 = load float, ptr %7, align 4, !tbaa !15
  %26 = getelementptr inbounds nuw %class.anon.409, ptr %11, i32 0, i32 2
  %27 = load float, ptr %26, align 8, !tbaa !2041
  %28 = fdiv float %25, %27
  store float %28, ptr %8, align 4, !tbaa !15
  %29 = load float, ptr %8, align 4, !tbaa !15
  %30 = getelementptr inbounds nuw %class.anon.409, ptr %11, i32 0, i32 3
  %31 = load float, ptr %30, align 4, !tbaa !2043
  %32 = fcmp ole float %29, %31
  br i1 %32, label %33, label %36

33:                                               ; preds = %2
  %34 = getelementptr inbounds nuw %class.anon.409, ptr %11, i32 0, i32 3
  %35 = load float, ptr %34, align 4, !tbaa !2043
  br label %38

36:                                               ; preds = %2
  %37 = load float, ptr %8, align 4, !tbaa !15
  br label %38

38:                                               ; preds = %36, %33
  %39 = phi float [ %35, %33 ], [ %37, %36 ]
  store float %39, ptr %8, align 4, !tbaa !15
  %40 = load float, ptr %8, align 4, !tbaa !15
  %41 = getelementptr inbounds nuw %class.anon.409, ptr %11, i32 0, i32 4
  %42 = load float, ptr %41, align 8, !tbaa !2045
  %43 = fcmp oge float %40, %42
  br i1 %43, label %44, label %47

44:                                               ; preds = %38
  %45 = getelementptr inbounds nuw %class.anon.409, ptr %11, i32 0, i32 4
  %46 = load float, ptr %45, align 8, !tbaa !2045
  br label %49

47:                                               ; preds = %38
  %48 = load float, ptr %8, align 4, !tbaa !15
  br label %49

49:                                               ; preds = %47, %44
  %50 = phi float [ %46, %44 ], [ %48, %47 ]
  store float %50, ptr %8, align 4, !tbaa !15
  call void @llvm.lifetime.start.p0(i64 4, ptr %9) #19
  %51 = getelementptr inbounds nuw %class.anon.409, ptr %11, i32 0, i32 5
  %52 = load float, ptr %51, align 4, !tbaa !2047
  %53 = load float, ptr %8, align 4, !tbaa !15
  %54 = getelementptr inbounds nuw %class.anon.409, ptr %11, i32 0, i32 3
  %55 = load float, ptr %54, align 4, !tbaa !2043
  %56 = fsub float %53, %55
  %57 = fmul float %52, %56
  %58 = fptosi float %57 to i32
  store i32 %58, ptr %9, align 4, !tbaa !127
  call void @llvm.lifetime.start.p0(i64 8, ptr %10) #19
  %59 = getelementptr inbounds nuw %class.anon.409, ptr %11, i32 0, i32 6
  %60 = load i64, ptr %6, align 8, !tbaa !49
  %61 = load i64, ptr %5, align 8, !tbaa !49
  %62 = call noundef ptr @_ZNK6open3d1t8geometry6kernel13TArrayIndexerIlE10GetDataPtrIhEEPT_ll(ptr noundef nonnull align 8 dereferenceable(56) %59, i64 noundef %60, i64 noundef %61)
  store ptr %62, ptr %10, align 8, !tbaa !23
  %63 = load i32, ptr %9, align 4, !tbaa !127
  %64 = sext i32 %63 to i64
  %65 = getelementptr inbounds [256 x [3 x i8]], ptr @_ZN12_GLOBAL__N_116turbo_srgb_bytesE, i64 0, i64 %64
  %66 = getelementptr inbounds [3 x i8], ptr %65, i64 0, i64 0
  %67 = load i8, ptr %66, align 1, !tbaa !50
  %68 = load ptr, ptr %10, align 8, !tbaa !23
  %69 = getelementptr inbounds i8, ptr %68, i64 0
  store i8 %67, ptr %69, align 1, !tbaa !50
  %70 = load i32, ptr %9, align 4, !tbaa !127
  %71 = sext i32 %70 to i64
  %72 = getelementptr inbounds [256 x [3 x i8]], ptr @_ZN12_GLOBAL__N_116turbo_srgb_bytesE, i64 0, i64 %71
  %73 = getelementptr inbounds [3 x i8], ptr %72, i64 0, i64 1
  %74 = load i8, ptr %73, align 1, !tbaa !50
  %75 = load ptr, ptr %10, align 8, !tbaa !23
  %76 = getelementptr inbounds i8, ptr %75, i64 1
  store i8 %74, ptr %76, align 1, !tbaa !50
  %77 = load i32, ptr %9, align 4, !tbaa !127
  %78 = sext i32 %77 to i64
  %79 = getelementptr inbounds [256 x [3 x i8]], ptr @_ZN12_GLOBAL__N_116turbo_srgb_bytesE, i64 0, i64 %78
  %80 = getelementptr inbounds [3 x i8], ptr %79, i64 0, i64 2
  %81 = load i8, ptr %80, align 1, !tbaa !50
  %82 = load ptr, ptr %10, align 8, !tbaa !23
  %83 = getelementptr inbounds i8, ptr %82, i64 2
  store i8 %81, ptr %83, align 1, !tbaa !50
  call void @llvm.lifetime.end.p0(i64 8, ptr %10) #19
  call void @llvm.lifetime.end.p0(i64 4, ptr %9) #19
  call void @llvm.lifetime.end.p0(i64 4, ptr %8) #19
  call void @llvm.lifetime.end.p0(i64 4, ptr %7) #19
  call void @llvm.lifetime.end.p0(i64 8, ptr %6) #19
  call void @llvm.lifetime.end.p0(i64 8, ptr %5) #19
  ret void
}

; Function Attrs: alwaysinline norecurse nounwind ssp uwtable
define internal void @"_ZN6open3d4core15ParallelForCPU_IZZZNS_1t8geometry6kernel5image16ColorizeDepthCPUERKNS0_6TensorERS6_fffENK3$_0clEvENKUlvE_clEvEUllE_EEvRKNS0_6DeviceElRKT_.omp_outlined"(ptr noalias noundef %0, ptr noalias noundef %1, ptr noundef nonnull align 8 dereferenceable(8) %2, ptr noundef nonnull align 8 dereferenceable(136) %3) #18 personality ptr @__gxx_personality_v0 {
  %5 = alloca ptr, align 8
  %6 = alloca ptr, align 8
  %7 = alloca ptr, align 8
  %8 = alloca ptr, align 8
  %9 = alloca ptr, align 8
  %10 = alloca i64, align 8
  %11 = alloca i64, align 8
  %12 = alloca i64, align 8
  %13 = alloca i64, align 8
  %14 = alloca i64, align 8
  %15 = alloca i64, align 8
  %16 = alloca i64, align 8
  %17 = alloca i32, align 4
  %18 = alloca i64, align 8
  store ptr %0, ptr %5, align 8, !tbaa !27
  store ptr %1, ptr %6, align 8, !tbaa !27
  store ptr %2, ptr %7, align 8, !tbaa !29
  store ptr %3, ptr %8, align 8, !tbaa !51
  %19 = load ptr, ptr %7, align 8, !tbaa !29
  %20 = load ptr, ptr %8, align 8, !tbaa !51
  store ptr %20, ptr %9, align 8
  call void @llvm.lifetime.start.p0(i64 8, ptr %10) #19
  call void @llvm.lifetime.start.p0(i64 8, ptr %11) #19
  %21 = load i64, ptr %19, align 8, !tbaa !49
  store i64 %21, ptr %11, align 8, !tbaa !49
  call void @llvm.lifetime.start.p0(i64 8, ptr %12) #19
  %22 = load i64, ptr %11, align 8, !tbaa !49
  %23 = sub nsw i64 %22, 0
  %24 = sdiv i64 %23, 1
  %25 = sub nsw i64 %24, 1
  store i64 %25, ptr %12, align 8, !tbaa !49
  call void @llvm.lifetime.start.p0(i64 8, ptr %13) #19
  store i64 0, ptr %13, align 8, !tbaa !49
  call void @llvm.lifetime.end.p0(i64 8, ptr %13) #19
  %26 = load i64, ptr %11, align 8, !tbaa !49
  %27 = icmp slt i64 0, %26
  br i1 %27, label %28, label %62

28:                                               ; preds = %4
  call void @llvm.lifetime.start.p0(i64 8, ptr %14) #19
  store i64 0, ptr %14, align 8, !tbaa !49
  call void @llvm.lifetime.start.p0(i64 8, ptr %15) #19
  %29 = load i64, ptr %12, align 8, !tbaa !49
  store i64 %29, ptr %15, align 8, !tbaa !49
  call void @llvm.lifetime.start.p0(i64 8, ptr %16) #19
  store i64 1, ptr %16, align 8, !tbaa !49
  call void @llvm.lifetime.start.p0(i64 4, ptr %17) #19
  store i32 0, ptr %17, align 4, !tbaa !127
  call void @llvm.lifetime.start.p0(i64 8, ptr %18) #19
  %30 = load ptr, ptr %5, align 8
  %31 = load i32, ptr %30, align 4, !tbaa !127
  call void @__kmpc_for_static_init_8(ptr @1, i32 %31, i32 34, ptr %17, ptr %14, ptr %15, ptr %16, i64 1, i64 1)
  %32 = load i64, ptr %15, align 8, !tbaa !49
  %33 = load i64, ptr %12, align 8, !tbaa !49
  %34 = icmp sgt i64 %32, %33
  br i1 %34, label %35, label %37

35:                                               ; preds = %28
  %36 = load i64, ptr %12, align 8, !tbaa !49
  br label %39

37:                                               ; preds = %28
  %38 = load i64, ptr %15, align 8, !tbaa !49
  br label %39

39:                                               ; preds = %37, %35
  %40 = phi i64 [ %36, %35 ], [ %38, %37 ]
  store i64 %40, ptr %15, align 8, !tbaa !49
  %41 = load i64, ptr %14, align 8, !tbaa !49
  store i64 %41, ptr %10, align 8, !tbaa !49
  br label %42

42:                                               ; preds = %55, %39
  %43 = load i64, ptr %10, align 8, !tbaa !49
  %44 = load i64, ptr %15, align 8, !tbaa !49
  %45 = icmp sle i64 %43, %44
  br i1 %45, label %47, label %46

46:                                               ; preds = %42
  br label %58

47:                                               ; preds = %42
  %48 = load i64, ptr %10, align 8, !tbaa !49
  %49 = mul nsw i64 %48, 1
  %50 = add nsw i64 0, %49
  store i64 %50, ptr %18, align 8, !tbaa !49
  %51 = load ptr, ptr %9, align 8, !tbaa !51
  %52 = load i64, ptr %18, align 8, !tbaa !49
  invoke void @"_ZZZZN6open3d1t8geometry6kernel5image16ColorizeDepthCPUERKNS_4core6TensorERS5_fffENK3$_0clEvENKUlvE_clEvENKUllE_clEl"(ptr noundef nonnull align 8 dereferenceable(136) %51, i64 noundef %52)
          to label %53 unwind label %63

53:                                               ; preds = %47
  br label %54

54:                                               ; preds = %53
  br label %55

55:                                               ; preds = %54
  %56 = load i64, ptr %10, align 8, !tbaa !49
  %57 = add nsw i64 %56, 1
  store i64 %57, ptr %10, align 8, !tbaa !49
  br label %42

58:                                               ; preds = %46
  br label %59

59:                                               ; preds = %58
  %60 = load ptr, ptr %5, align 8
  %61 = load i32, ptr %60, align 4, !tbaa !127
  call void @__kmpc_for_static_fini(ptr @1, i32 %61)
  call void @llvm.lifetime.end.p0(i64 8, ptr %18) #19
  call void @llvm.lifetime.end.p0(i64 4, ptr %17) #19
  call void @llvm.lifetime.end.p0(i64 8, ptr %16) #19
  call void @llvm.lifetime.end.p0(i64 8, ptr %15) #19
  call void @llvm.lifetime.end.p0(i64 8, ptr %14) #19
  br label %62

62:                                               ; preds = %59, %4
  call void @llvm.lifetime.end.p0(i64 8, ptr %12) #19
  call void @llvm.lifetime.end.p0(i64 8, ptr %11) #19
  call void @llvm.lifetime.end.p0(i64 8, ptr %10) #19
  ret void

63:                                               ; preds = %47
  %64 = landingpad { ptr, i32 }
          catch ptr null
  %65 = extractvalue { ptr, i32 } %64, 0
  call void @__clang_call_terminate(ptr %65) #29
  unreachable
}